target datalayout = "e-m:e-p270:32:32-p271:32:32-p272:64:64-i64:64-i128:128-f80:128-n8:16:32:64-S128"
target triple = "x86_64-pc-linux-gnu"

%struct._tvbparse_wanted_t = type { i32, ptr, %union.anon, i32, i32, i32, ptr, ptr, ptr }
%union.anon = type { %struct.anon.2 }
%struct.anon.2 = type { ptr, ptr, ptr }
%struct._tvbparse_t = type { ptr, ptr, i32, i32, ptr, ptr, i32 }
%struct._tvbparse_elem_t = type { i32, ptr, ptr, i32, i32, ptr, ptr, ptr, ptr, ptr }

; Function Attrs: null_pointer_is_valid sspstrong uwtable
define internal ptr @new_tok(ptr noundef %0, i32 noundef %1, i32 noundef %2, i32 noundef %3, ptr noundef %4) #0 {
  %6 = alloca ptr, align 8
  %7 = alloca i32, align 4
  %8 = alloca i32, align 4
  %9 = alloca i32, align 4
  %10 = alloca ptr, align 8
  %11 = alloca ptr, align 8
  store ptr %0, ptr %6, align 8
  store i32 %1, ptr %7, align 4
  store i32 %2, ptr %8, align 4
  store i32 %3, ptr %9, align 4
  store ptr %4, ptr %10, align 8
  call void @llvm.lifetime.start.p0(i64 8, ptr %11) #11
  %12 = load ptr, ptr %6, align 8
  %13 = getelementptr inbounds nuw %struct._tvbparse_t, ptr %12, i32 0, i32 0
  %14 = load ptr, ptr %13, align 8
  %15 = call noalias ptr @wmem_alloc(ptr noundef %14, i64 noundef 72) #12
  store ptr %15, ptr %11, align 8
  %16 = load ptr, ptr %6, align 8
  %17 = load ptr, ptr %11, align 8
  %18 = getelementptr inbounds nuw %struct._tvbparse_elem_t, ptr %17, i32 0, i32 1
  store ptr %16, ptr %18, align 8
  %19 = load ptr, ptr %6, align 8
  %20 = getelementptr inbounds nuw %struct._tvbparse_t, ptr %19, i32 0, i32 1
  %21 = load ptr, ptr %20, align 8
  %22 = load ptr, ptr %11, align 8
  %23 = getelementptr inbounds nuw %struct._tvbparse_elem_t, ptr %22, i32 0, i32 2
  store ptr %21, ptr %23, align 8
  %24 = load i32, ptr %7, align 4
  %25 = load ptr, ptr %11, align 8
  %26 = getelementptr inbounds nuw %struct._tvbparse_elem_t, ptr %25, i32 0, i32 0
  store i32 %24, ptr %26, align 8
  %27 = load i32, ptr %8, align 4
  %28 = load ptr, ptr %11, align 8
  %29 = getelementptr inbounds nuw %struct._tvbparse_elem_t, ptr %28, i32 0, i32 3
  store i32 %27, ptr %29, align 8
  %30 = load i32, ptr %9, align 4
  %31 = load ptr, ptr %11, align 8
  %32 = getelementptr inbounds nuw %struct._tvbparse_elem_t, ptr %31, i32 0, i32 4
  store i32 %30, ptr %32, align 4
  %33 = load ptr, ptr %11, align 8
  %34 = getelementptr inbounds nuw %struct._tvbparse_elem_t, ptr %33, i32 0, i32 5
  store ptr null, ptr %34, align 8
  %35 = load ptr, ptr %11, align 8
  %36 = getelementptr inbounds nuw %struct._tvbparse_elem_t, ptr %35, i32 0, i32 6
  store ptr null, ptr %36, align 8
  %37 = load ptr, ptr %11, align 8
  %38 = getelementptr inbounds nuw %struct._tvbparse_elem_t, ptr %37, i32 0, i32 7
  store ptr null, ptr %38, align 8
  %39 = load ptr, ptr %10, align 8
  %40 = load ptr, ptr %11, align 8
  %41 = getelementptr inbounds nuw %struct._tvbparse_elem_t, ptr %40, i32 0, i32 9
  store ptr %39, ptr %41, align 8
  %42 = load ptr, ptr %11, align 8
  %43 = load ptr, ptr %11, align 8
  %44 = getelementptr inbounds nuw %struct._tvbparse_elem_t, ptr %43, i32 0, i32 8
  store ptr %42, ptr %44, align 8
  %45 = load ptr, ptr %11, align 8
  call void @llvm.lifetime.end.p0(i64 8, ptr %11) #11
  ret ptr %45
}

; Function Attrs: null_pointer_is_valid sspstrong uwtable
define internal i32 @cond_chars_common(ptr noundef %0, i32 noundef %1, ptr noundef %2, ptr noundef %3) #0 {
  %5 = alloca i32, align 4
  %6 = alloca ptr, align 8
  %7 = alloca i32, align 4
  %8 = alloca ptr, align 8
  %9 = alloca ptr, align 8
  %10 = alloca i32, align 4
  %11 = alloca i32, align 4
  %12 = alloca i32, align 4
  %13 = alloca i32, align 4
  %14 = alloca i8, align 1
  store ptr %0, ptr %6, align 8
  store i32 %1, ptr %7, align 4
  store ptr %2, ptr %8, align 8
  store ptr %3, ptr %9, align 8
  call void @llvm.lifetime.start.p0(i64 4, ptr %10) #11
  store i32 0, ptr %10, align 4
  call void @llvm.lifetime.start.p0(i64 4, ptr %11) #11
  %15 = load i32, ptr %7, align 4
  store i32 %15, ptr %11, align 4
  call void @llvm.lifetime.start.p0(i64 4, ptr %12) #11
  %16 = load ptr, ptr %6, align 8
  %17 = getelementptr inbounds nuw %struct._tvbparse_t, ptr %16, i32 0, i32 3
  %18 = load i32, ptr %17, align 4
  %19 = load i32, ptr %7, align 4
  %20 = sub i32 %18, %19
  store i32 %20, ptr %12, align 4
  %21 = load i32, ptr %7, align 4
  %22 = load ptr, ptr %8, align 8
  %23 = getelementptr inbounds nuw %struct._tvbparse_wanted_t, ptr %22, i32 0, i32 4
  %24 = load i32, ptr %23, align 4
  %25 = add i32 %21, %24
  %26 = load ptr, ptr %6, align 8
  %27 = getelementptr inbounds nuw %struct._tvbparse_t, ptr %26, i32 0, i32 3
  %28 = load i32, ptr %27, align 4
  %29 = icmp sgt i32 %25, %28
  br i1 %29, label %30, label %31

30:                                               ; preds = %4
  store i32 -1, ptr %5, align 4
  store i32 1, ptr %13, align 4
  br label %90

31:                                               ; preds = %4
  %32 = load i32, ptr %12, align 4
  %33 = load ptr, ptr %8, align 8
  %34 = getelementptr inbounds nuw %struct._tvbparse_wanted_t, ptr %33, i32 0, i32 5
  %35 = load i32, ptr %34, align 8
  %36 = icmp slt i32 %32, %35
  br i1 %36, label %37, label %39

37:                                               ; preds = %31
  %38 = load i32, ptr %12, align 4
  br label %43

39:                                               ; preds = %31
  %40 = load ptr, ptr %8, align 8
  %41 = getelementptr inbounds nuw %struct._tvbparse_wanted_t, ptr %40, i32 0, i32 5
  %42 = load i32, ptr %41, align 8
  br label %43

43:                                               ; preds = %39, %37
  %44 = phi i32 [ %38, %37 ], [ %42, %39 ]
  store i32 %44, ptr %12, align 4
  br label %45

45:                                               ; preds = %71, %43
  %46 = load i32, ptr %12, align 4
  %47 = icmp sgt i32 %46, 0
  br i1 %47, label %48, label %72

48:                                               ; preds = %45
  call void @llvm.lifetime.start.p0(i64 1, ptr %14) #11
  %49 = load ptr, ptr %6, align 8
  %50 = getelementptr inbounds nuw %struct._tvbparse_t, ptr %49, i32 0, i32 1
  %51 = load ptr, ptr %50, align 8
  %52 = load i32, ptr %7, align 4
  %53 = add i32 %52, 1
  store i32 %53, ptr %7, align 4
  %54 = call zeroext i8 @tvb_get_uint8(ptr noundef %51, i32 noundef %52)
  store i8 %54, ptr %14, align 1
  %55 = load ptr, ptr %8, align 8
  %56 = getelementptr inbounds nuw %struct._tvbparse_wanted_t, ptr %55, i32 0, i32 2
  %57 = load ptr, ptr %56, align 8
  %58 = load i8, ptr %14, align 1
  %59 = zext i8 %58 to i64
  %60 = getelementptr i8, ptr %57, i64 %59
  %61 = load i8, ptr %60, align 1
  %62 = icmp ne i8 %61, 0
  br i1 %62, label %64, label %63

63:                                               ; preds = %48
  store i32 3, ptr %13, align 4
  br label %69

64:                                               ; preds = %48
  %65 = load i32, ptr %10, align 4
  %66 = add i32 %65, 1
  store i32 %66, ptr %10, align 4
  %67 = load i32, ptr %12, align 4
  %68 = add i32 %67, -1
  store i32 %68, ptr %12, align 4
  store i32 0, ptr %13, align 4
  br label %69

69:                                               ; preds = %64, %63
  call void @llvm.lifetime.end.p0(i64 1, ptr %14) #11
  %70 = load i32, ptr %13, align 4
  switch i32 %70, label %92 [
    i32 0, label %71
    i32 3, label %72
  ]

71:                                               ; preds = %69
  br label %45, !llvm.loop !9

72:                                               ; preds = %69, %45
  %73 = load i32, ptr %10, align 4
  %74 = load ptr, ptr %8, align 8
  %75 = getelementptr inbounds nuw %struct._tvbparse_wanted_t, ptr %74, i32 0, i32 4
  %76 = load i32, ptr %75, align 4
  %77 = icmp ult i32 %73, %76
  br i1 %77, label %78, label %79

78:                                               ; preds = %72
  store i32 -1, ptr %5, align 4
  store i32 1, ptr %13, align 4
  br label %90

79:                                               ; preds = %72
  %80 = load ptr, ptr %6, align 8
  %81 = load ptr, ptr %8, align 8
  %82 = getelementptr inbounds nuw %struct._tvbparse_wanted_t, ptr %81, i32 0, i32 0
  %83 = load i32, ptr %82, align 8
  %84 = load i32, ptr %11, align 4
  %85 = load i32, ptr %10, align 4
  %86 = load ptr, ptr %8, align 8
  %87 = call ptr @new_tok(ptr noundef %80, i32 noundef %83, i32 noundef %84, i32 noundef %85, ptr noundef %86)
  %88 = load ptr, ptr %9, align 8
  store ptr %87, ptr %88, align 8
  %89 = load i32, ptr %10, align 4
  store i32 %89, ptr %5, align 4
  store i32 1, ptr %13, align 4
  br label %90

90:                                               ; preds = %79, %78, %30
  call void @llvm.lifetime.end.p0(i64 4, ptr %12) #11
  call void @llvm.lifetime.end.p0(i64 4, ptr %11) #11
  call void @llvm.lifetime.end.p0(i64 4, ptr %10) #11
  %91 = load i32, ptr %5, align 4
  ret i32 %91

92:                                               ; preds = %69
  unreachable
}