; Function Attrs: null_pointer_is_valid sspstrong uwtable
define internal i32 @cond_chars_common(ptr noundef %0, i32 noundef %1, ptr noundef %2, ptr noundef writeonly captures(none) %3) #0 {
  %5 = getelementptr inbounds nuw i8, ptr %0, i64 20
  %6 = load i32, ptr %5, align 4
  %7 = getelementptr inbounds nuw i8, ptr %2, i64 44
  %8 = load i32, ptr %7, align 4
  %9 = add i32 %8, %1
  %10 = icmp sgt i32 %9, %6
  br i1 %10, label %44, label %11

11:                                               ; preds = %4
  %12 = sub i32 %6, %1
  %13 = getelementptr inbounds nuw i8, ptr %2, i64 48
  %14 = load i32, ptr %13, align 8
  %. = tail call i32 @llvm.smin.i32(i32 %12, i32 %14)
  %15 = getelementptr inbounds nuw i8, ptr %0, i64 8
  %16 = getelementptr inbounds nuw i8, ptr %2, i64 16
  br label %17

17:                                               ; preds = %19, %11
  %.030 = phi i32 [ 0, %11 ], [ %27, %19 ]
  %.029 = phi i32 [ %1, %11 ], [ %21, %19 ]
  %.028 = phi i32 [ %., %11 ], [ %28, %19 ]
  %18 = icmp sgt i32 %.028, 0
  br i1 %18, label %19, label %29

19:                                               ; preds = %17
  %20 = load ptr, ptr %15, align 8
  %21 = add i32 %.029, 1
  %22 = tail call zeroext i8 @tvb_get_uint8(ptr noundef %20, i32 noundef %.029)
  %23 = load ptr, ptr %16, align 8
  %24 = zext i8 %22 to i64
  %25 = getelementptr i8, ptr %23, i64 %24
  %26 = load i8, ptr %25, align 1
  %.not = icmp eq i8 %26, 0
  %27 = add nuw i32 %.030, 1
  %28 = add nsw i32 %.028, -1
  br i1 %.not, label %29, label %17

29:                                               ; preds = %19, %17
  %30 = load i32, ptr %7, align 4
  %31 = icmp ult i32 %.030, %30
  br i1 %31, label %44, label %32

32:                                               ; preds = %29
  %33 = load i32, ptr %2, align 8
  %34 = load ptr, ptr %0, align 8
  %35 = tail call noalias dereferenceable_or_null(72) ptr @wmem_alloc(ptr noundef %34, i64 noundef 72) #11
  %36 = getelementptr inbounds nuw i8, ptr %35, i64 8
  store ptr %0, ptr %36, align 8
  %37 = load ptr, ptr %15, align 8
  %38 = getelementptr inbounds nuw i8, ptr %35, i64 16
  store ptr %37, ptr %38, align 8
  store i32 %33, ptr %35, align 8
  %39 = getelementptr inbounds nuw i8, ptr %35, i64 24
  store i32 %1, ptr %39, align 8
  %40 = getelementptr inbounds nuw i8, ptr %35, i64 28
  store i32 %.030, ptr %40, align 4
  %41 = getelementptr inbounds nuw i8, ptr %35, i64 32
  %42 = getelementptr inbounds nuw i8, ptr %35, i64 64
  tail call void @llvm.memset.p0.i64(ptr noundef nonnull align 8 dereferenceable(24) %41, i8 0, i64 24, i1 false)
  store ptr %2, ptr %42, align 8
  %43 = getelementptr inbounds nuw i8, ptr %35, i64 56
  store ptr %35, ptr %43, align 8
  store ptr %35, ptr %3, align 8
  br label %44

44:                                               ; preds = %29, %4, %32
  %.0 = phi i32 [ %.030, %32 ], [ -1, %4 ], [ -1, %29 ]
  ret i32 %.0
}